; Function Attrs: nounwind uwtable
define range(i32 0, 2) i32 @Llb_ManFlowVerifyCut(ptr noundef %0, ptr noundef readonly captures(none) %1) local_unnamed_addr #0 {
  tail call void @Aig_ManIncrementTravId(ptr noundef %0) #22
  %3 = getelementptr i8, ptr %1, i64 4
  %.val20 = load i32, ptr %3, align 4, !tbaa !10
  %4 = icmp sgt i32 %.val20, 0
  br i1 %4, label %.lr.ph, label %.critedge.preheader

.lr.ph:                                           ; preds = %2
  %5 = getelementptr i8, ptr %1, i64 8
  %.val19 = load ptr, ptr %5, align 8, !tbaa !9
  %6 = getelementptr i8, ptr %0, i64 312
  %.val21 = load i32, ptr %6, align 8, !tbaa !14
  %wide.trip.count = zext nneg i32 %.val20 to i64
  br label %11

.critedge.preheader:                              ; preds = %11, %2
  %7 = getelementptr inbounds nuw i8, ptr %0, i64 24
  %8 = getelementptr i8, ptr %0, i64 104
  %.val2326 = load i32, ptr %8, align 8, !tbaa !46
  %9 = icmp sgt i32 %.val2326, 0
  br i1 %9, label %.lr.ph28, label %.critedge2

.lr.ph28:                                         ; preds = %.critedge.preheader
  %10 = getelementptr i8, ptr %0, i64 112
  br label %17

11:                                               ; preds = %.lr.ph, %11
  %indvars.iv = phi i64 [ 0, %.lr.ph ], [ %indvars.iv.next, %11 ]
  %12 = getelementptr inbounds nuw ptr, ptr %.val19, i64 %indvars.iv
  %13 = load ptr, ptr %12, align 8, !tbaa !11
  %14 = getelementptr inbounds nuw i8, ptr %13, i64 32
  store i32 %.val21, ptr %14, align 8, !tbaa !28
  %indvars.iv.next = add nuw nsw i64 %indvars.iv, 1
  %exitcond.not = icmp eq i64 %indvars.iv.next, %wide.trip.count
  br i1 %exitcond.not, label %.critedge.preheader, label %11, !llvm.loop !75

.critedge:                                        ; preds = %17
  %15 = add nuw nsw i32 %.127, 1
  %.val23 = load i32, ptr %8, align 8, !tbaa !46
  %16 = icmp slt i32 %15, %.val23
  br i1 %16, label %17, label %.critedge2, !llvm.loop !76

17:                                               ; preds = %.lr.ph28, %.critedge
  %.127 = phi i32 [ 0, %.lr.ph28 ], [ %15, %.critedge ]
  %18 = load ptr, ptr %7, align 8, !tbaa !47
  %.val24 = load i32, ptr %10, align 8, !tbaa !48
  %19 = add nsw i32 %.val24, %.127
  %20 = getelementptr i8, ptr %18, i64 8
  %.val = load ptr, ptr %20, align 8, !tbaa !9
  %21 = sext i32 %19 to i64
  %22 = getelementptr inbounds ptr, ptr %.val, i64 %21
  %23 = load ptr, ptr %22, align 8, !tbaa !11
  %24 = getelementptr i8, ptr %23, i64 8
  %.val22 = load ptr, ptr %24, align 8, !tbaa !31
  %25 = ptrtoint ptr %.val22 to i64
  %26 = and i64 %25, -2
  %27 = inttoptr i64 %26 to ptr
  %28 = tail call i32 @Llb_ManFlowVerifyCut_rec(ptr noundef nonnull %0, ptr noundef %27)
  %.not = icmp eq i32 %28, 0
  br i1 %.not, label %.critedge2, label %.critedge

.critedge2:                                       ; preds = %17, %.critedge, %.critedge.preheader
  %.018 = phi i32 [ 1, %.critedge.preheader ], [ 1, %.critedge ], [ 0, %17 ]
  ret i32 %.018
}